target datalayout = "e-m:e-p270:32:32-p271:32:32-p272:64:64-i64:64-i128:128-f80:128-n8:16:32:64-S128"
target triple = "x86_64-pc-linux-gnu"

%struct.jpeg_common_struct = type { ptr, ptr, ptr, ptr, i32, i32 }
%struct.jpeg_error_mgr = type { ptr, ptr, ptr, ptr, ptr, i32, %union.anon, i32, i64, ptr, i32, ptr, i32, i32 }
%union.anon = type { [8 x i32], [48 x i8] }
%struct.cdjpeg_progress_mgr = type { %struct.jpeg_progress_mgr, i32, i32, i32, i32, i32 }
%struct.jpeg_progress_mgr = type { ptr, i64, i64, i32, i32 }

; Function Attrs: nounwind uwtable
define dso_local void @start_progress_monitor(ptr noundef %0, ptr noundef %1) #0 {
  %3 = alloca ptr, align 8
  %4 = alloca ptr, align 8
  store ptr %0, ptr %3, align 8, !tbaa !4
  store ptr %1, ptr %4, align 8, !tbaa !9
  %5 = load ptr, ptr %3, align 8, !tbaa !4
  %6 = getelementptr inbounds nuw %struct.jpeg_common_struct, ptr %5, i32 0, i32 0
  %7 = load ptr, ptr %6, align 8, !tbaa !11
  %8 = getelementptr inbounds nuw %struct.jpeg_error_mgr, ptr %7, i32 0, i32 7
  %9 = load i32, ptr %8, align 4, !tbaa !17
  %10 = icmp eq i32 %9, 0
  br i1 %10, label %11, label %29

11:                                               ; preds = %2
  %12 = load ptr, ptr %4, align 8, !tbaa !9
  %13 = getelementptr inbounds nuw %struct.cdjpeg_progress_mgr, ptr %12, i32 0, i32 0
  %14 = getelementptr inbounds nuw %struct.jpeg_progress_mgr, ptr %13, i32 0, i32 0
  store ptr @progress_monitor, ptr %14, align 8, !tbaa !21
  %15 = load ptr, ptr %4, align 8, !tbaa !9
  %16 = getelementptr inbounds nuw %struct.cdjpeg_progress_mgr, ptr %15, i32 0, i32 1
  store i32 0, ptr %16, align 8, !tbaa !24
  %17 = load ptr, ptr %4, align 8, !tbaa !9
  %18 = getelementptr inbounds nuw %struct.cdjpeg_progress_mgr, ptr %17, i32 0, i32 2
  store i32 0, ptr %18, align 4, !tbaa !25
  %19 = load ptr, ptr %4, align 8, !tbaa !9
  %20 = getelementptr inbounds nuw %struct.cdjpeg_progress_mgr, ptr %19, i32 0, i32 3
  store i32 0, ptr %20, align 8, !tbaa !26
  %21 = load ptr, ptr %4, align 8, !tbaa !9
  %22 = getelementptr inbounds nuw %struct.cdjpeg_progress_mgr, ptr %21, i32 0, i32 4
  store i32 0, ptr %22, align 4, !tbaa !27
  %23 = load ptr, ptr %4, align 8, !tbaa !9
  %24 = getelementptr inbounds nuw %struct.cdjpeg_progress_mgr, ptr %23, i32 0, i32 5
  store i32 -1, ptr %24, align 8, !tbaa !28
  %25 = load ptr, ptr %4, align 8, !tbaa !9
  %26 = getelementptr inbounds nuw %struct.cdjpeg_progress_mgr, ptr %25, i32 0, i32 0
  %27 = load ptr, ptr %3, align 8, !tbaa !4
  %28 = getelementptr inbounds nuw %struct.jpeg_common_struct, ptr %27, i32 0, i32 2
  store ptr %26, ptr %28, align 8, !tbaa !29
  br label %29

29:                                               ; preds = %11, %2
  ret void
}