; Function Attrs: mustprogress nofree norecurse nosync nounwind willreturn memory(read, argmem: readwrite, inaccessiblemem: none) uwtable
define dso_local void @start_progress_monitor(ptr noundef captures(none) %0, ptr noundef %1) local_unnamed_addr #0 {
  %3 = load ptr, ptr %0, align 8, !tbaa !4
  %4 = getelementptr inbounds nuw i8, ptr %3, i64 124
  %5 = load i32, ptr %4, align 4, !tbaa !13
  %6 = icmp eq i32 %5, 0
  br i1 %6, label %7, label %11

7:                                                ; preds = %2
  store ptr @progress_monitor, ptr %1, align 8, !tbaa !17
  %8 = getelementptr inbounds nuw i8, ptr %1, i64 32
  %9 = getelementptr inbounds nuw i8, ptr %1, i64 48
  tail call void @llvm.memset.p0.i64(ptr noundef nonnull align 8 dereferenceable(16) %8, i8 0, i64 16, i1 false)
  store i32 -1, ptr %9, align 8, !tbaa !20
  %10 = getelementptr inbounds nuw i8, ptr %0, i64 16
  store ptr %1, ptr %10, align 8, !tbaa !21
  br label %11

11:                                               ; preds = %7, %2
  ret void
}